; Function Attrs: nounwind uwtable
define noalias ptr @EVP_PKEY_meth_new(i32 noundef %0, i32 noundef %1) local_unnamed_addr #0 {
  %3 = tail call noalias ptr @CRYPTO_zalloc(i64 noundef 256, ptr noundef nonnull @.str, i32 noundef 128) #10
  %4 = icmp eq ptr %3, null
  br i1 %4, label %8, label %5

5:                                                ; preds = %2
  store i32 %0, ptr %3, align 8, !tbaa !8
  %6 = or i32 %1, 1
  %7 = getelementptr inbounds nuw i8, ptr %3, i64 4
  store i32 %6, ptr %7, align 4, !tbaa !14
  br label %8

8:                                                ; preds = %2, %5
  ret ptr %3
}